target datalayout = "e-m:e-p270:32:32-p271:32:32-p272:64:64-i64:64-i128:128-f80:128-n8:16:32:64-S128"
target triple = "x86_64-pc-linux-gnu"

%struct.archive_read = type { %struct.archive, ptr, i32, i64, i64, %struct.archive_read_client, [16 x %struct.archive_read_filter_bidder], ptr, i32, i64, i32, i32, [16 x %struct.archive_format_descriptor], ptr, ptr, ptr, %struct.anon }
%struct.archive = type { i32, i32, ptr, i32, ptr, i32, i32, ptr, %struct.archive_string, ptr, i32, i32, ptr, ptr, i64, i64, i64, i8, i64 }
%struct.archive_string = type { ptr, i64, i64 }
%struct.archive_read_client = type { ptr, ptr, ptr, ptr, ptr, ptr, i32, i32, i64, ptr }
%struct.archive_read_filter_bidder = type { ptr, ptr, ptr }
%struct.archive_format_descriptor = type { ptr, ptr, ptr, ptr, ptr, ptr, ptr, ptr, ptr, ptr, ptr }
%struct.anon = type { ptr, ptr, i32, ptr, ptr }
%struct.rar5 = type { i32, i32, i32, i32, i64, i64, %struct.generic_header, %struct.main_header, %struct.comp_state, %struct.file_header, %struct.bit_reader, %struct.multivolume, %struct.compressed_block_header, i32, i32 }
%struct.generic_header = type { i8, i32, i32 }
%struct.main_header = type { i8, i32 }
%struct.comp_state = type { i8, i32, i32, i32, i64, ptr, ptr, ptr, i64, i64, i64, i64, i64, i64, i32, %struct.decode_table, %struct.decode_table, %struct.decode_table, %struct.decode_table, %struct.decode_table, %struct.cdeque, i64, i64, [4 x i32], [2 x %struct.data_ready] }
%struct.decode_table = type { i32, [16 x i32], [16 x i32], i32, [1024 x i8], [1024 x i16], [306 x i16] }
%struct.cdeque = type { i16, i16, i16, i16, ptr }
%struct.data_ready = type { i8, ptr, i64, i64 }
%struct.file_header = type { i64, i64, i64, i64, i8, i64, i64, i64, i32, i32, i32, [32 x i8], %struct.blake2sp_state__, i8, i64, i64, i64 }
%struct.blake2sp_state__ = type { [8 x [1 x %struct.blake2s_state__]], [1 x %struct.blake2s_state__], [512 x i8], i64, i64 }
%struct.blake2s_state__ = type { [8 x i32], [2 x i32], [2 x i32], [64 x i8], i64, i64, i8 }
%struct.bit_reader = type { i8, i32 }
%struct.multivolume = type { i32, ptr }
%struct.compressed_block_header = type { i8, i8 }

; Function Attrs: nounwind uwtable
define internal i32 @rar5_has_encrypted_entries(ptr noundef %0) #0 {
  %2 = alloca i32, align 4
  %3 = alloca ptr, align 8
  %4 = alloca ptr, align 8
  %5 = alloca i32, align 4
  store ptr %0, ptr %3, align 8, !tbaa !13
  %6 = load ptr, ptr %3, align 8, !tbaa !13
  %7 = icmp ne ptr %6, null
  br i1 %7, label %8, label %29

8:                                                ; preds = %1
  %9 = load ptr, ptr %3, align 8, !tbaa !13
  %10 = getelementptr inbounds nuw %struct.archive_read, ptr %9, i32 0, i32 13
  %11 = load ptr, ptr %10, align 8, !tbaa !52
  %12 = icmp ne ptr %11, null
  br i1 %12, label %13, label %29

13:                                               ; preds = %8
  call void @llvm.lifetime.start.p0(i64 8, ptr %4) #11
  %14 = load ptr, ptr %3, align 8, !tbaa !13
  %15 = getelementptr inbounds nuw %struct.archive_read, ptr %14, i32 0, i32 13
  %16 = load ptr, ptr %15, align 8, !tbaa !52
  %17 = getelementptr inbounds nuw %struct.archive_format_descriptor, ptr %16, i32 0, i32 0
  %18 = load ptr, ptr %17, align 8, !tbaa !66
  store ptr %18, ptr %4, align 8, !tbaa !11
  %19 = load ptr, ptr %4, align 8, !tbaa !11
  %20 = icmp ne ptr %19, null
  br i1 %20, label %21, label %25

21:                                               ; preds = %13
  %22 = load ptr, ptr %4, align 8, !tbaa !11
  %23 = getelementptr inbounds nuw %struct.rar5, ptr %22, i32 0, i32 13
  %24 = load i32, ptr %23, align 4, !tbaa !17
  store i32 %24, ptr %2, align 4
  store i32 1, ptr %5, align 4
  br label %26

25:                                               ; preds = %13
  store i32 0, ptr %5, align 4
  br label %26

26:                                               ; preds = %25, %21
  call void @llvm.lifetime.end.p0(i64 8, ptr %4) #11
  %27 = load i32, ptr %5, align 4
  switch i32 %27, label %32 [
    i32 0, label %28
    i32 1, label %30
  ]

28:                                               ; preds = %26
  br label %29

29:                                               ; preds = %28, %8, %1
  store i32 -1, ptr %2, align 4
  br label %30

30:                                               ; preds = %29, %26
  %31 = load i32, ptr %2, align 4
  ret i32 %31

32:                                               ; preds = %26
  unreachable
}