; Function Attrs: mustprogress nofree norecurse nosync nounwind willreturn memory(read, inaccessiblemem: none) uwtable
define internal i32 @rar5_has_encrypted_entries(ptr noundef readonly %0) #6 {
  %.not = icmp eq ptr %0, null
  br i1 %.not, label %.thread, label %2

2:                                                ; preds = %1
  %3 = getelementptr inbounds nuw i8, ptr %0, i64 2072
  %4 = load ptr, ptr %3, align 8, !tbaa !31
  %.not10 = icmp eq ptr %4, null
  br i1 %.not10, label %.thread, label %5

5:                                                ; preds = %2
  %6 = load ptr, ptr %4, align 8, !tbaa !46
  %.not11.not = icmp eq ptr %6, null
  br i1 %.not11.not, label %.thread, label %7

7:                                                ; preds = %5
  %8 = getelementptr inbounds nuw i8, ptr %6, i64 21292
  %9 = load i32, ptr %8, align 4, !tbaa !12
  br label %.thread

.thread:                                          ; preds = %5, %1, %2, %7
  %.1 = phi i32 [ %9, %7 ], [ -1, %2 ], [ -1, %1 ], [ -1, %5 ]
  ret i32 %.1
}